; Function Attrs: mustprogress nounwind uwtable
define void @_ZN3net17QuicPacketCreator11ClearPacketEv(ptr noundef nonnull align 8 dereferenceable(312) initializes((160, 170), (200, 201), (202, 204), (219, 223), (224, 232)) %0) local_unnamed_addr #4 align 2 personality ptr @__gxx_personality_v0 {
  %2 = getelementptr inbounds nuw i8, ptr %0, i64 160
  %3 = getelementptr inbounds nuw i8, ptr %0, i64 219
  store i8 0, ptr %3, align 1, !tbaa !147
  %4 = getelementptr inbounds nuw i8, ptr %0, i64 220
  store i8 0, ptr %4, align 4, !tbaa !148
  %5 = getelementptr inbounds nuw i8, ptr %0, i64 200
  store i8 0, ptr %5, align 8, !tbaa !142
  %6 = getelementptr inbounds nuw i8, ptr %0, i64 202
  store i16 0, ptr %6, align 2, !tbaa !125
  %7 = getelementptr inbounds nuw i8, ptr %0, i64 222
  store i8 -1, ptr %7, align 2, !tbaa !162
  %8 = getelementptr inbounds nuw i8, ptr %0, i64 224
  store i64 0, ptr %8, align 8, !tbaa !164
  %9 = getelementptr inbounds nuw i8, ptr %0, i64 221
  store i8 0, ptr %9, align 1, !tbaa !166
  store ptr null, ptr %2, align 8, !tbaa !194
  %10 = getelementptr inbounds nuw i8, ptr %0, i64 168
  store i16 0, ptr %10, align 8, !tbaa !195
  %11 = getelementptr inbounds nuw i8, ptr %0, i64 232
  %12 = load ptr, ptr %11, align 8, !tbaa !196
  %.not8.i.i = icmp eq ptr %12, %11
  br i1 %.not8.i.i, label %_ZNSt7__cxx114listIN3net18AckListenerWrapperESaIS2_EE5clearEv.exit, label %.lr.ph.i.i

.lr.ph.i.i:                                       ; preds = %1, %.lr.ph.i.i
  %.09.i.i = phi ptr [ %13, %.lr.ph.i.i ], [ %12, %1 ]
  %13 = load ptr, ptr %.09.i.i, align 8, !tbaa !196
  %14 = getelementptr inbounds nuw i8, ptr %.09.i.i, i64 16
  tail call void @_ZN3net18AckListenerWrapperD1Ev(ptr noundef nonnull align 8 dereferenceable(10) %14) #21
  tail call void @_ZdlPv(ptr noundef nonnull %.09.i.i) #22
  %.not.i.i = icmp eq ptr %13, %11
  br i1 %.not.i.i, label %_ZNSt7__cxx114listIN3net18AckListenerWrapperESaIS2_EE5clearEv.exit, label %.lr.ph.i.i, !llvm.loop !197

_ZNSt7__cxx114listIN3net18AckListenerWrapperESaIS2_EE5clearEv.exit: ; preds = %.lr.ph.i.i, %1
  %15 = getelementptr inbounds nuw i8, ptr %0, i64 240
  store ptr %11, ptr %15, align 8, !tbaa !198
  store ptr %11, ptr %11, align 8, !tbaa !196
  %16 = getelementptr inbounds nuw i8, ptr %0, i64 248
  store i64 0, ptr %16, align 8, !tbaa !199
  ret void
}